target datalayout = "e-m:e-p270:32:32-p271:32:32-p272:64:64-i64:64-i128:128-f80:128-n8:16:32:64-S128"
target triple = "x86_64-pc-linux-gnu"

%struct.PKCS12_SAFEBAG_st = type { ptr, %union.anon, ptr }
%union.anon = type { ptr }

; Function Attrs: nounwind uwtable
define ptr @PKCS12_SAFEBAG_get0_pkcs8(ptr noundef %0) #0 {
  %2 = alloca ptr, align 8
  %3 = alloca ptr, align 8
  store ptr %0, ptr %3, align 8, !tbaa !3
  %4 = load ptr, ptr %3, align 8, !tbaa !3
  %5 = getelementptr inbounds nuw %struct.PKCS12_SAFEBAG_st, ptr %4, i32 0, i32 0
  %6 = load ptr, ptr %5, align 8, !tbaa !17
  %7 = call i32 @OBJ_obj2nid(ptr noundef %6)
  %8 = icmp ne i32 %7, 151
  br i1 %8, label %9, label %10

9:                                                ; preds = %1
  store ptr null, ptr %2, align 8
  br label %14

10:                                               ; preds = %1
  %11 = load ptr, ptr %3, align 8, !tbaa !3
  %12 = getelementptr inbounds nuw %struct.PKCS12_SAFEBAG_st, ptr %11, i32 0, i32 1
  %13 = load ptr, ptr %12, align 8, !tbaa !16
  store ptr %13, ptr %2, align 8
  br label %14

14:                                               ; preds = %10, %9
  %15 = load ptr, ptr %2, align 8
  ret ptr %15
}