; Function Attrs: nounwind uwtable
define ptr @PKCS12_SAFEBAG_get0_pkcs8(ptr noundef readonly captures(none) %0) local_unnamed_addr #0 {
  %2 = load ptr, ptr %0, align 8, !tbaa !10
  %3 = tail call i32 @OBJ_obj2nid(ptr noundef %2) #4
  %.not = icmp eq i32 %3, 151
  br i1 %.not, label %4, label %7

4:                                                ; preds = %1
  %5 = getelementptr inbounds nuw i8, ptr %0, i64 8
  %6 = load ptr, ptr %5, align 8, !tbaa !11
  br label %7

7:                                                ; preds = %1, %4
  %.0 = phi ptr [ %6, %4 ], [ null, %1 ]
  ret ptr %.0
}